; Function Attrs: mustprogress uwtable
define void @_ZN6icu_758TimeZoneC2ERKS0_(ptr noundef nonnull align 8 dereferenceable(72) %this, ptr noundef nonnull align 8 dereferenceable(72) %source) unnamed_addr #0 align 2 personality ptr @__gxx_personality_v0 {
entry:
  store ptr getelementptr inbounds ({ [16 x ptr] }, ptr @_ZTVN6icu_758TimeZoneE, i64 0, i32 0, i64 2), ptr %this, align 8
  %fID = getelementptr inbounds i8, ptr %this, i64 8
  %fID2 = getelementptr inbounds i8, ptr %source, i64 8
  invoke void @_ZN6icu_7513UnicodeStringC1ERKS0_(ptr noundef nonnull align 8 dereferenceable(64) %fID, ptr noundef nonnull align 8 dereferenceable(64) %fID2)
          to label %invoke.cont unwind label %lpad

invoke.cont:                                      ; preds = %entry
  ret void

lpad:                                             ; preds = %entry
  %0 = landingpad { ptr, i32 }
          cleanup
  tail call void @_ZN6icu_757UObjectD2Ev(ptr noundef nonnull align 8 dereferenceable(8) %this) #18
  resume { ptr, i32 } %0
}